target datalayout = "e-m:e-p270:32:32-p271:32:32-p272:64:64-i64:64-i128:128-f80:128-n8:16:32:64-S128"
target triple = "x86_64-pc-linux-gnu"

%"class.cv::utils::trace::details::Region" = type <{ ptr, i32, [4 x i8] }>
%"struct.cv::cpu_baseline::NormL1_SIMD.9" = type { i8 }

; Function Attrs: inlinehint mustprogress nounwind uwtable
define linkonce_odr hidden noundef i32 @_ZN2cv6cv_absEt(i16 noundef zeroext %0) #3 comdat {
  %2 = alloca i16, align 2
  store i16 %0, ptr %2, align 2, !tbaa !101
  %3 = load i16, ptr %2, align 2, !tbaa !101
  %4 = zext i16 %3 to i32
  ret i32 %4
}

; Function Attrs: inlinehint mustprogress nounwind uwtable
define linkonce_odr hidden noundef i32 @_ZNK2cv12cpu_baseline11NormL1_SIMDItiEclEPKti(ptr noundef nonnull align 1 dereferenceable(1) %0, ptr noundef %1, i32 noundef %2) #3 comdat align 2 {
  %4 = alloca ptr, align 8
  %5 = alloca ptr, align 8
  %6 = alloca i32, align 4
  %7 = alloca i32, align 4
  %8 = alloca i32, align 4
  store ptr %0, ptr %4, align 8, !tbaa !140
  store ptr %1, ptr %5, align 8, !tbaa !13
  store i32 %2, ptr %6, align 4, !tbaa !3
  call void @llvm.lifetime.start.p0(i64 4, ptr %7) #15
  store i32 0, ptr %7, align 4, !tbaa !3
  call void @llvm.lifetime.start.p0(i64 4, ptr %8) #15
  store i32 0, ptr %8, align 4, !tbaa !3
  br label %9

9:                                                ; preds = %23, %3
  %10 = load i32, ptr %8, align 4, !tbaa !3
  %11 = load i32, ptr %6, align 4, !tbaa !3
  %12 = icmp slt i32 %10, %11
  br i1 %12, label %14, label %13

13:                                               ; preds = %9
  call void @llvm.lifetime.end.p0(i64 4, ptr %8) #15
  br label %26

14:                                               ; preds = %9
  %15 = load ptr, ptr %5, align 8, !tbaa !13
  %16 = load i32, ptr %8, align 4, !tbaa !3
  %17 = sext i32 %16 to i64
  %18 = getelementptr inbounds i16, ptr %15, i64 %17
  %19 = load i16, ptr %18, align 2, !tbaa !101
  %20 = call noundef i32 @_ZN2cv6cv_absEt(i16 noundef zeroext %19)
  %21 = load i32, ptr %7, align 4, !tbaa !3
  %22 = add nsw i32 %21, %20
  store i32 %22, ptr %7, align 4, !tbaa !3
  br label %23

23:                                               ; preds = %14
  %24 = load i32, ptr %8, align 4, !tbaa !3
  %25 = add nsw i32 %24, 1
  store i32 %25, ptr %8, align 4, !tbaa !3
  br label %9, !llvm.loop !142

26:                                               ; preds = %13
  %27 = load i32, ptr %7, align 4, !tbaa !3
  call void @llvm.lifetime.end.p0(i64 4, ptr %7) #15
  ret i32 %27
}

; Function Attrs: inlinehint mustprogress nounwind uwtable
define linkonce_odr hidden void @_ZN2cv5utils5trace7details6RegionD2Ev(ptr noundef nonnull align 8 dereferenceable(12) %0) unnamed_addr #3 comdat align 2 personality ptr @__gxx_personality_v0 {
  %2 = alloca ptr, align 8
  store ptr %0, ptr %2, align 8, !tbaa !19
  %3 = load ptr, ptr %2, align 8
  %4 = getelementptr inbounds nuw %"class.cv::utils::trace::details::Region", ptr %3, i32 0, i32 1
  %5 = load i32, ptr %4, align 8, !tbaa !21
  %6 = icmp ne i32 %5, 0
  br i1 %6, label %7, label %9

7:                                                ; preds = %1
  invoke void @_ZN2cv5utils5trace7details6Region7destroyEv(ptr noundef nonnull align 8 dereferenceable(12) %3)
          to label %8 unwind label %10

8:                                                ; preds = %7
  br label %9

9:                                                ; preds = %8, %1
  ret void

10:                                               ; preds = %7
  %11 = landingpad { ptr, i32 }
          catch ptr null
  %12 = extractvalue { ptr, i32 } %11, 0
  call void @__clang_call_terminate(ptr %12) #16
  unreachable
}

; Function Attrs: mustprogress uwtable
define linkonce_odr hidden noundef i32 @_ZN2cv12cpu_baseline7normL1_ItiEEiPKT_PKhPT0_ii(ptr noundef %0, ptr noundef %1, ptr noundef %2, i32 noundef %3, i32 noundef %4) #0 comdat {
  %6 = alloca ptr, align 8
  %7 = alloca ptr, align 8
  %8 = alloca ptr, align 8
  %9 = alloca i32, align 4
  %10 = alloca i32, align 4
  %11 = alloca i32, align 4
  %12 = alloca %"struct.cv::cpu_baseline::NormL1_SIMD.9", align 1
  %13 = alloca i32, align 4
  %14 = alloca i32, align 4
  %15 = alloca i32, align 4
  store ptr %0, ptr %6, align 8, !tbaa !13
  store ptr %1, ptr %7, align 8, !tbaa !9
  store ptr %2, ptr %8, align 8, !tbaa !11
  store i32 %3, ptr %9, align 4, !tbaa !3
  store i32 %4, ptr %10, align 4, !tbaa !3
  call void @llvm.lifetime.start.p0(i64 4, ptr %11) #15
  %16 = load ptr, ptr %8, align 8, !tbaa !11
  %17 = load i32, ptr %16, align 4, !tbaa !3
  store i32 %17, ptr %11, align 4, !tbaa !3
  %18 = load ptr, ptr %7, align 8, !tbaa !9
  %19 = icmp ne ptr %18, null
  br i1 %19, label %28, label %20

20:                                               ; preds = %5
  call void @llvm.lifetime.start.p0(i64 1, ptr %12) #15
  %21 = load ptr, ptr %6, align 8, !tbaa !13
  %22 = load i32, ptr %9, align 4, !tbaa !3
  %23 = load i32, ptr %10, align 4, !tbaa !3
  %24 = mul nsw i32 %22, %23
  %25 = call noundef i32 @_ZNK2cv12cpu_baseline11NormL1_SIMDItiEclEPKti(ptr noundef nonnull align 1 dereferenceable(1) %12, ptr noundef %21, i32 noundef %24)
  %26 = load i32, ptr %11, align 4, !tbaa !3
  %27 = add nsw i32 %26, %25
  store i32 %27, ptr %11, align 4, !tbaa !3
  call void @llvm.lifetime.end.p0(i64 1, ptr %12) #15
  br label %69

28:                                               ; preds = %5
  call void @llvm.lifetime.start.p0(i64 4, ptr %13) #15
  store i32 0, ptr %13, align 4, !tbaa !3
  br label %29

29:                                               ; preds = %61, %28
  %30 = load i32, ptr %13, align 4, !tbaa !3
  %31 = load i32, ptr %9, align 4, !tbaa !3
  %32 = icmp slt i32 %30, %31
  br i1 %32, label %34, label %33

33:                                               ; preds = %29
  store i32 2, ptr %14, align 4
  call void @llvm.lifetime.end.p0(i64 4, ptr %13) #15
  br label %68

34:                                               ; preds = %29
  %35 = load ptr, ptr %7, align 8, !tbaa !9
  %36 = load i32, ptr %13, align 4, !tbaa !3
  %37 = sext i32 %36 to i64
  %38 = getelementptr inbounds i8, ptr %35, i64 %37
  %39 = load i8, ptr %38, align 1, !tbaa !24
  %40 = icmp ne i8 %39, 0
  br i1 %40, label %41, label %60

41:                                               ; preds = %34
  call void @llvm.lifetime.start.p0(i64 4, ptr %15) #15
  store i32 0, ptr %15, align 4, !tbaa !3
  br label %42

42:                                               ; preds = %56, %41
  %43 = load i32, ptr %15, align 4, !tbaa !3
  %44 = load i32, ptr %10, align 4, !tbaa !3
  %45 = icmp slt i32 %43, %44
  br i1 %45, label %47, label %46

46:                                               ; preds = %42
  store i32 5, ptr %14, align 4
  call void @llvm.lifetime.end.p0(i64 4, ptr %15) #15
  br label %59

47:                                               ; preds = %42
  %48 = load ptr, ptr %6, align 8, !tbaa !13
  %49 = load i32, ptr %15, align 4, !tbaa !3
  %50 = sext i32 %49 to i64
  %51 = getelementptr inbounds i16, ptr %48, i64 %50
  %52 = load i16, ptr %51, align 2, !tbaa !101
  %53 = call noundef i32 @_ZN2cv6cv_absEt(i16 noundef zeroext %52)
  %54 = load i32, ptr %11, align 4, !tbaa !3
  %55 = add nsw i32 %54, %53
  store i32 %55, ptr %11, align 4, !tbaa !3
  br label %56

56:                                               ; preds = %47
  %57 = load i32, ptr %15, align 4, !tbaa !3
  %58 = add nsw i32 %57, 1
  store i32 %58, ptr %15, align 4, !tbaa !3
  br label %42, !llvm.loop !138

59:                                               ; preds = %46
  br label %60

60:                                               ; preds = %59, %34
  br label %61

61:                                               ; preds = %60
  %62 = load i32, ptr %13, align 4, !tbaa !3
  %63 = add nsw i32 %62, 1
  store i32 %63, ptr %13, align 4, !tbaa !3
  %64 = load i32, ptr %10, align 4, !tbaa !3
  %65 = load ptr, ptr %6, align 8, !tbaa !13
  %66 = sext i32 %64 to i64
  %67 = getelementptr inbounds i16, ptr %65, i64 %66
  store ptr %67, ptr %6, align 8, !tbaa !13
  br label %29, !llvm.loop !139

68:                                               ; preds = %33
  br label %69

69:                                               ; preds = %68, %20
  %70 = load i32, ptr %11, align 4, !tbaa !3
  %71 = load ptr, ptr %8, align 8, !tbaa !11
  store i32 %70, ptr %71, align 4, !tbaa !3
  store i32 1, ptr %14, align 4
  call void @llvm.lifetime.end.p0(i64 4, ptr %11) #15
  ret i32 0
}

; Function Attrs: mustprogress uwtable
define internal noundef i32 @_ZN2cv12cpu_baselineL10normL1_16uEPKtPKhPiii(ptr noundef %0, ptr noundef %1, ptr noundef %2, i32 noundef %3, i32 noundef %4) #0 personality ptr @__gxx_personality_v0 {
  %6 = alloca ptr, align 8
  %7 = alloca ptr, align 8
  %8 = alloca ptr, align 8
  %9 = alloca i32, align 4
  %10 = alloca i32, align 4
  %11 = alloca %"class.cv::utils::trace::details::Region", align 8
  %12 = alloca ptr, align 8
  %13 = alloca i32, align 4
  store ptr %0, ptr %6, align 8, !tbaa !13
  store ptr %1, ptr %7, align 8, !tbaa !9
  store ptr %2, ptr %8, align 8, !tbaa !11
  store i32 %3, ptr %9, align 4, !tbaa !3
  store i32 %4, ptr %10, align 4, !tbaa !3
  call void @llvm.lifetime.start.p0(i64 16, ptr %11) #15
  call void @_ZN2cv5utils5trace7details6RegionC1ERKNS3_21LocationStaticStorageE(ptr noundef nonnull align 8 dereferenceable(12) %11, ptr noundef nonnull align 8 dereferenceable(32) @_ZZN2cv12cpu_baselineL10normL1_16uEPKtPKhPiiiE25__cv_trace_location_fn644)
  %14 = load ptr, ptr %6, align 8, !tbaa !13
  %15 = load ptr, ptr %7, align 8, !tbaa !9
  %16 = load ptr, ptr %8, align 8, !tbaa !11
  %17 = load i32, ptr %9, align 4, !tbaa !3
  %18 = load i32, ptr %10, align 4, !tbaa !3
  %19 = invoke noundef i32 @_ZN2cv12cpu_baseline7normL1_ItiEEiPKT_PKhPT0_ii(ptr noundef %14, ptr noundef %15, ptr noundef %16, i32 noundef %17, i32 noundef %18)
          to label %20 unwind label %21

20:                                               ; preds = %5
  call void @_ZN2cv5utils5trace7details6RegionD2Ev(ptr noundef nonnull align 8 dereferenceable(12) %11) #15
  call void @llvm.lifetime.end.p0(i64 16, ptr %11) #15
  ret i32 %19

21:                                               ; preds = %5
  %22 = landingpad { ptr, i32 }
          cleanup
  %23 = extractvalue { ptr, i32 } %22, 0
  store ptr %23, ptr %12, align 8
  %24 = extractvalue { ptr, i32 } %22, 1
  store i32 %24, ptr %13, align 4
  call void @_ZN2cv5utils5trace7details6RegionD2Ev(ptr noundef nonnull align 8 dereferenceable(12) %11) #15
  call void @llvm.lifetime.end.p0(i64 16, ptr %11) #15
  br label %25

25:                                               ; preds = %21
  %26 = load ptr, ptr %12, align 8
  %27 = load i32, ptr %13, align 4
  %28 = insertvalue { ptr, i32 } poison, ptr %26, 0
  %29 = insertvalue { ptr, i32 } %28, i32 %27, 1
  resume { ptr, i32 } %29
}